; Function Attrs: mustprogress nofree nosync nounwind willreturn memory(read, inaccessiblemem: none) uwtable
define internal fastcc range(i32 0, 8193) i32 @match_class(i32 noundef range(i32 0, 256) %0, i32 noundef range(i32 0, 256) %1) unnamed_addr #5 {
  %3 = tail call ptr @__ctype_tolower_loc() #11
  %4 = load ptr, ptr %3, align 8, !tbaa !35
  %5 = zext nneg i32 %1 to i64
  %6 = getelementptr inbounds nuw i32, ptr %4, i64 %5
  %.027 = load i32, ptr %6, align 4, !tbaa !37
  switch i32 %.027, label %82 [
    i32 97, label %7
    i32 99, label %15
    i32 100, label %23
    i32 108, label %31
    i32 112, label %39
    i32 115, label %47
    i32 117, label %55
    i32 119, label %63
    i32 120, label %71
    i32 122, label %79
  ]

7:                                                ; preds = %2
  %8 = tail call ptr @__ctype_b_loc() #11
  %9 = load ptr, ptr %8, align 8, !tbaa !19
  %10 = zext nneg i32 %0 to i64
  %11 = getelementptr inbounds nuw i16, ptr %9, i64 %10
  %12 = load i16, ptr %11, align 2, !tbaa !21
  %13 = and i16 %12, 1024
  %14 = zext nneg i16 %13 to i32
  br label %85

15:                                               ; preds = %2
  %16 = tail call ptr @__ctype_b_loc() #11
  %17 = load ptr, ptr %16, align 8, !tbaa !19
  %18 = zext nneg i32 %0 to i64
  %19 = getelementptr inbounds nuw i16, ptr %17, i64 %18
  %20 = load i16, ptr %19, align 2, !tbaa !21
  %21 = and i16 %20, 2
  %22 = zext nneg i16 %21 to i32
  br label %85

23:                                               ; preds = %2
  %24 = tail call ptr @__ctype_b_loc() #11
  %25 = load ptr, ptr %24, align 8, !tbaa !19
  %26 = zext nneg i32 %0 to i64
  %27 = getelementptr inbounds nuw i16, ptr %25, i64 %26
  %28 = load i16, ptr %27, align 2, !tbaa !21
  %29 = and i16 %28, 2048
  %30 = zext nneg i16 %29 to i32
  br label %85

31:                                               ; preds = %2
  %32 = tail call ptr @__ctype_b_loc() #11
  %33 = load ptr, ptr %32, align 8, !tbaa !19
  %34 = zext nneg i32 %0 to i64
  %35 = getelementptr inbounds nuw i16, ptr %33, i64 %34
  %36 = load i16, ptr %35, align 2, !tbaa !21
  %37 = and i16 %36, 512
  %38 = zext nneg i16 %37 to i32
  br label %85

39:                                               ; preds = %2
  %40 = tail call ptr @__ctype_b_loc() #11
  %41 = load ptr, ptr %40, align 8, !tbaa !19
  %42 = zext nneg i32 %0 to i64
  %43 = getelementptr inbounds nuw i16, ptr %41, i64 %42
  %44 = load i16, ptr %43, align 2, !tbaa !21
  %45 = and i16 %44, 4
  %46 = zext nneg i16 %45 to i32
  br label %85

47:                                               ; preds = %2
  %48 = tail call ptr @__ctype_b_loc() #11
  %49 = load ptr, ptr %48, align 8, !tbaa !19
  %50 = zext nneg i32 %0 to i64
  %51 = getelementptr inbounds nuw i16, ptr %49, i64 %50
  %52 = load i16, ptr %51, align 2, !tbaa !21
  %53 = and i16 %52, 8192
  %54 = zext nneg i16 %53 to i32
  br label %85

55:                                               ; preds = %2
  %56 = tail call ptr @__ctype_b_loc() #11
  %57 = load ptr, ptr %56, align 8, !tbaa !19
  %58 = zext nneg i32 %0 to i64
  %59 = getelementptr inbounds nuw i16, ptr %57, i64 %58
  %60 = load i16, ptr %59, align 2, !tbaa !21
  %61 = and i16 %60, 256
  %62 = zext nneg i16 %61 to i32
  br label %85

63:                                               ; preds = %2
  %64 = tail call ptr @__ctype_b_loc() #11
  %65 = load ptr, ptr %64, align 8, !tbaa !19
  %66 = zext nneg i32 %0 to i64
  %67 = getelementptr inbounds nuw i16, ptr %65, i64 %66
  %68 = load i16, ptr %67, align 2, !tbaa !21
  %69 = and i16 %68, 8
  %70 = zext nneg i16 %69 to i32
  br label %85

71:                                               ; preds = %2
  %72 = tail call ptr @__ctype_b_loc() #11
  %73 = load ptr, ptr %72, align 8, !tbaa !19
  %74 = zext nneg i32 %0 to i64
  %75 = getelementptr inbounds nuw i16, ptr %73, i64 %74
  %76 = load i16, ptr %75, align 2, !tbaa !21
  %77 = and i16 %76, 4096
  %78 = zext nneg i16 %77 to i32
  br label %85

79:                                               ; preds = %2
  %80 = icmp eq i32 %0, 0
  %81 = zext i1 %80 to i32
  %.pre = tail call ptr @__ctype_b_loc() #11
  br label %85

82:                                               ; preds = %2
  %83 = icmp eq i32 %1, %0
  %84 = zext i1 %83 to i32
  br label %93

85:                                               ; preds = %79, %71, %63, %55, %47, %39, %31, %23, %15, %7
  %.pre-phi = phi ptr [ %.pre, %79 ], [ %72, %71 ], [ %64, %63 ], [ %56, %55 ], [ %48, %47 ], [ %40, %39 ], [ %32, %31 ], [ %24, %23 ], [ %16, %15 ], [ %8, %7 ]
  %.026 = phi i32 [ %81, %79 ], [ %78, %71 ], [ %70, %63 ], [ %62, %55 ], [ %54, %47 ], [ %46, %39 ], [ %38, %31 ], [ %30, %23 ], [ %22, %15 ], [ %14, %7 ]
  %86 = load ptr, ptr %.pre-phi, align 8, !tbaa !19
  %87 = zext nneg i32 %1 to i64
  %88 = getelementptr inbounds nuw i16, ptr %86, i64 %87
  %89 = load i16, ptr %88, align 2, !tbaa !21
  %90 = and i16 %89, 512
  %.not = icmp eq i16 %90, 0
  %.not29 = icmp eq i32 %.026, 0
  %91 = zext i1 %.not29 to i32
  %92 = select i1 %.not, i32 %91, i32 %.026
  br label %93

93:                                               ; preds = %85, %82
  %.0 = phi i32 [ %84, %82 ], [ %92, %85 ]
  ret i32 %.0
}